target datalayout = "e-m:e-p270:32:32-p271:32:32-p272:64:64-i64:64-i128:128-f80:128-n8:16:32:64-S128"
target triple = "x86_64-pc-linux-gnu"

%struct._lv_tabview_t = type { %struct._lv_obj_t, i32, i32 }
%struct._lv_obj_t = type { ptr, ptr, ptr, ptr, ptr, %struct.lv_area_t, i32, i16, i16 }
%struct.lv_area_t = type { i32, i32, i32, i32 }

; Function Attrs: nounwind uwtable
define ptr @lv_tabview_get_content(ptr noundef %0) #0 {
  %2 = alloca ptr, align 8
  store ptr %0, ptr %2, align 8, !tbaa !3
  %3 = load ptr, ptr %2, align 8, !tbaa !3
  %4 = call ptr @lv_obj_get_child(ptr noundef %3, i32 noundef 1)
  ret ptr %4
}

; Function Attrs: nounwind uwtable
define ptr @lv_tabview_get_tab_bar(ptr noundef %0) #0 {
  %2 = alloca ptr, align 8
  store ptr %0, ptr %2, align 8, !tbaa !3
  %3 = load ptr, ptr %2, align 8, !tbaa !3
  %4 = call ptr @lv_obj_get_child(ptr noundef %3, i32 noundef 0)
  ret ptr %4
}

; Function Attrs: nounwind uwtable
define void @lv_tabview_set_tab_bar_position(ptr noundef %0, i32 noundef %1) #0 {
  %3 = alloca ptr, align 8
  %4 = alloca i32, align 4
  %5 = alloca ptr, align 8
  %6 = alloca ptr, align 8
  %7 = alloca ptr, align 8
  %8 = alloca i8, align 1
  %9 = alloca i8, align 1
  %10 = alloca i32, align 4
  store ptr %0, ptr %3, align 8, !tbaa !3
  store i32 %1, ptr %4, align 4, !tbaa !13
  br label %11

11:                                               ; preds = %2
  br label %12

12:                                               ; preds = %11
  call void @llvm.lifetime.start.p0(i64 8, ptr %5) #4
  %13 = load ptr, ptr %3, align 8, !tbaa !3
  store ptr %13, ptr %5, align 8, !tbaa !3
  %14 = load i32, ptr %4, align 4, !tbaa !13
  switch i32 %14, label %24 [
    i32 4, label %15
    i32 8, label %17
    i32 1, label %19
    i32 2, label %21
    i32 3, label %23
    i32 12, label %23
    i32 15, label %23
    i32 0, label %23
  ]

15:                                               ; preds = %12
  %16 = load ptr, ptr %3, align 8, !tbaa !3
  call void @lv_obj_set_flex_flow(ptr noundef %16, i32 noundef 1)
  br label %24

17:                                               ; preds = %12
  %18 = load ptr, ptr %3, align 8, !tbaa !3
  call void @lv_obj_set_flex_flow(ptr noundef %18, i32 noundef 9)
  br label %24

19:                                               ; preds = %12
  %20 = load ptr, ptr %3, align 8, !tbaa !3
  call void @lv_obj_set_flex_flow(ptr noundef %20, i32 noundef 0)
  br label %24

21:                                               ; preds = %12
  %22 = load ptr, ptr %3, align 8, !tbaa !3
  call void @lv_obj_set_flex_flow(ptr noundef %22, i32 noundef 8)
  br label %24

23:                                               ; preds = %12, %12, %12, %12
  br label %24

24:                                               ; preds = %12, %23, %21, %19, %17, %15
  call void @llvm.lifetime.start.p0(i64 8, ptr %6) #4
  %25 = load ptr, ptr %3, align 8, !tbaa !3
  %26 = call ptr @lv_tabview_get_tab_bar(ptr noundef %25)
  store ptr %26, ptr %6, align 8, !tbaa !3
  call void @llvm.lifetime.start.p0(i64 8, ptr %7) #4
  %27 = load ptr, ptr %3, align 8, !tbaa !3
  %28 = call ptr @lv_tabview_get_content(ptr noundef %27)
  store ptr %28, ptr %7, align 8, !tbaa !3
  %29 = load i32, ptr %4, align 4, !tbaa !13
  switch i32 %29, label %45 [
    i32 4, label %30
    i32 8, label %30
    i32 1, label %37
    i32 2, label %37
    i32 3, label %44
    i32 12, label %44
    i32 15, label %44
    i32 0, label %44
  ]

30:                                               ; preds = %24, %24
  %31 = load ptr, ptr %7, align 8, !tbaa !3
  call void @lv_obj_set_width(ptr noundef %31, i32 noundef 536871012)
  %32 = load ptr, ptr %7, align 8, !tbaa !3
  call void @lv_obj_set_flex_grow(ptr noundef %32, i8 noundef zeroext 1)
  %33 = load ptr, ptr %6, align 8, !tbaa !3
  call void @lv_obj_set_flex_flow(ptr noundef %33, i32 noundef 0)
  %34 = load ptr, ptr %7, align 8, !tbaa !3
  call void @lv_obj_set_flex_flow(ptr noundef %34, i32 noundef 0)
  %35 = load ptr, ptr %7, align 8, !tbaa !3
  call void @lv_obj_set_scroll_snap_x(ptr noundef %35, i32 noundef 3)
  %36 = load ptr, ptr %7, align 8, !tbaa !3
  call void @lv_obj_set_scroll_snap_y(ptr noundef %36, i32 noundef 0)
  br label %45

37:                                               ; preds = %24, %24
  %38 = load ptr, ptr %7, align 8, !tbaa !3
  call void @lv_obj_set_height(ptr noundef %38, i32 noundef 536871012)
  %39 = load ptr, ptr %7, align 8, !tbaa !3
  call void @lv_obj_set_flex_grow(ptr noundef %39, i8 noundef zeroext 1)
  %40 = load ptr, ptr %6, align 8, !tbaa !3
  call void @lv_obj_set_flex_flow(ptr noundef %40, i32 noundef 1)
  %41 = load ptr, ptr %7, align 8, !tbaa !3
  call void @lv_obj_set_flex_flow(ptr noundef %41, i32 noundef 1)
  %42 = load ptr, ptr %7, align 8, !tbaa !3
  call void @lv_obj_set_scroll_snap_x(ptr noundef %42, i32 noundef 0)
  %43 = load ptr, ptr %7, align 8, !tbaa !3
  call void @lv_obj_set_scroll_snap_y(ptr noundef %43, i32 noundef 3)
  br label %45

44:                                               ; preds = %24, %24, %24, %24
  br label %45

45:                                               ; preds = %24, %44, %37, %30
  call void @llvm.lifetime.start.p0(i64 1, ptr %8) #4
  %46 = load ptr, ptr %5, align 8, !tbaa !3
  %47 = getelementptr inbounds nuw %struct._lv_tabview_t, ptr %46, i32 0, i32 2
  %48 = load i32, ptr %47, align 4, !tbaa !7
  %49 = and i32 %48, 12
  %50 = icmp ne i32 %49, 0
  %51 = zext i1 %50 to i8
  store i8 %51, ptr %8, align 1, !tbaa !18
  call void @llvm.lifetime.start.p0(i64 1, ptr %9) #4
  %52 = load i32, ptr %4, align 4, !tbaa !13
  %53 = and i32 %52, 12
  %54 = icmp ne i32 %53, 0
  %55 = zext i1 %54 to i8
  store i8 %55, ptr %9, align 1, !tbaa !18
  %56 = load i8, ptr %8, align 1, !tbaa !18, !range !20, !noundef !21
  %57 = trunc i8 %56 to i1
  %58 = zext i1 %57 to i32
  %59 = load i8, ptr %9, align 1, !tbaa !18, !range !20, !noundef !21
  %60 = trunc i8 %59 to i1
  %61 = zext i1 %60 to i32
  %62 = icmp ne i32 %58, %61
  br i1 %62, label %63, label %79

63:                                               ; preds = %45
  call void @llvm.lifetime.start.p0(i64 4, ptr %10) #4
  %64 = load ptr, ptr %3, align 8, !tbaa !3
  %65 = call ptr @lv_obj_get_display(ptr noundef %64)
  %66 = call i32 @lv_display_get_dpi(ptr noundef %65)
  store i32 %66, ptr %10, align 4, !tbaa !13
  %67 = load i8, ptr %9, align 1, !tbaa !18, !range !20, !noundef !21
  %68 = trunc i8 %67 to i1
  br i1 %68, label %69, label %74

69:                                               ; preds = %63
  %70 = load ptr, ptr %6, align 8, !tbaa !3
  %71 = call i32 @lv_pct(i32 noundef 100)
  %72 = load i32, ptr %10, align 4, !tbaa !13
  %73 = sdiv i32 %72, 2
  call void @lv_obj_set_size(ptr noundef %70, i32 noundef %71, i32 noundef %73)
  br label %78

74:                                               ; preds = %63
  %75 = load ptr, ptr %6, align 8, !tbaa !3
  %76 = load i32, ptr %10, align 4, !tbaa !13
  %77 = call i32 @lv_pct(i32 noundef 100)
  call void @lv_obj_set_size(ptr noundef %75, i32 noundef %76, i32 noundef %77)
  br label %78

78:                                               ; preds = %74, %69
  call void @llvm.lifetime.end.p0(i64 4, ptr %10) #4
  br label %79

79:                                               ; preds = %78, %45
  %80 = load i32, ptr %4, align 4, !tbaa !13
  %81 = load ptr, ptr %5, align 8, !tbaa !3
  %82 = getelementptr inbounds nuw %struct._lv_tabview_t, ptr %81, i32 0, i32 2
  store i32 %80, ptr %82, align 4, !tbaa !7
  call void @llvm.lifetime.end.p0(i64 1, ptr %9) #4
  call void @llvm.lifetime.end.p0(i64 1, ptr %8) #4
  call void @llvm.lifetime.end.p0(i64 8, ptr %7) #4
  call void @llvm.lifetime.end.p0(i64 8, ptr %6) #4
  call void @llvm.lifetime.end.p0(i64 8, ptr %5) #4
  ret void
}