; Function Attrs: nounwind uwtable
define void @lv_tabview_set_tab_bar_position(ptr noundef %0, i32 noundef %1) local_unnamed_addr #0 {
  switch i32 %1, label %9 [
    i32 4, label %.thread
    i32 8, label %3
    i32 1, label %.thread33
    i32 2, label %4
  ]

3:                                                ; preds = %2
  br label %.thread

4:                                                ; preds = %2
  br label %.thread33

.thread:                                          ; preds = %2, %3
  %.sink = phi i32 [ 9, %3 ], [ 1, %2 ]
  tail call void @lv_obj_set_flex_flow(ptr noundef %0, i32 noundef %.sink) #5
  %5 = tail call ptr @lv_obj_get_child(ptr noundef %0, i32 noundef 0) #5
  %6 = tail call ptr @lv_obj_get_child(ptr noundef %0, i32 noundef 1) #5
  tail call void @lv_obj_set_width(ptr noundef %6, i32 noundef 536871012) #5
  tail call void @lv_obj_set_flex_grow(ptr noundef %6, i8 noundef zeroext 1) #5
  tail call void @lv_obj_set_flex_flow(ptr noundef %5, i32 noundef 0) #5
  tail call void @lv_obj_set_flex_flow(ptr noundef %6, i32 noundef 0) #5
  tail call void @lv_obj_set_scroll_snap_x(ptr noundef %6, i32 noundef 3) #5
  tail call void @lv_obj_set_scroll_snap_y(ptr noundef %6, i32 noundef 0) #5
  br label %12

.thread33:                                        ; preds = %2, %4
  %.sink34 = phi i32 [ 8, %4 ], [ 0, %2 ]
  tail call void @lv_obj_set_flex_flow(ptr noundef %0, i32 noundef %.sink34) #5
  %7 = tail call ptr @lv_obj_get_child(ptr noundef %0, i32 noundef 0) #5
  %8 = tail call ptr @lv_obj_get_child(ptr noundef %0, i32 noundef 1) #5
  tail call void @lv_obj_set_height(ptr noundef %8, i32 noundef 536871012) #5
  tail call void @lv_obj_set_flex_grow(ptr noundef %8, i8 noundef zeroext 1) #5
  tail call void @lv_obj_set_flex_flow(ptr noundef %7, i32 noundef 1) #5
  tail call void @lv_obj_set_flex_flow(ptr noundef %8, i32 noundef 1) #5
  tail call void @lv_obj_set_scroll_snap_x(ptr noundef %8, i32 noundef 0) #5
  tail call void @lv_obj_set_scroll_snap_y(ptr noundef %8, i32 noundef 3) #5
  br label %12

9:                                                ; preds = %2
  %10 = tail call ptr @lv_obj_get_child(ptr noundef %0, i32 noundef 0) #5
  %11 = tail call ptr @lv_obj_get_child(ptr noundef %0, i32 noundef 1) #5
  br label %12

12:                                               ; preds = %9, %.thread33, %.thread
  %13 = phi ptr [ %7, %.thread33 ], [ %5, %.thread ], [ %10, %9 ]
  %14 = getelementptr inbounds nuw i8, ptr %0, i64 68
  %15 = load i32, ptr %14, align 4, !tbaa !3
  %16 = and i32 %15, 12
  %17 = and i32 %1, 12
  %18 = icmp ne i32 %17, 0
  %19 = icmp eq i32 %16, 0
  %.not = xor i1 %18, %19
  br i1 %.not, label %27, label %20

20:                                               ; preds = %12
  %21 = tail call ptr @lv_obj_get_display(ptr noundef nonnull %0) #5
  %22 = tail call i32 @lv_display_get_dpi(ptr noundef %21) #5
  %23 = tail call i32 @lv_pct(i32 noundef 100) #5
  br i1 %18, label %24, label %26

24:                                               ; preds = %20
  %25 = sdiv i32 %22, 2
  tail call void @lv_obj_set_size(ptr noundef %13, i32 noundef %23, i32 noundef %25) #5
  br label %27

26:                                               ; preds = %20
  tail call void @lv_obj_set_size(ptr noundef %13, i32 noundef %22, i32 noundef %23) #5
  br label %27

27:                                               ; preds = %24, %26, %12
  store i32 %1, ptr %14, align 4, !tbaa !3
  ret void
}